; ModuleID = 'source-C-CXX/18/1952.c'
source_filename = "source-C-CXX/18/1952.c"
target datalayout = "e-m:e-p270:32:32-p271:32:32-p272:64:64-i64:64-f80:128-n8:16:32:64-S128"
target triple = "x86_64-pc-linux-gnu"

@.str = private unnamed_addr constant [4 x i8] c"%s \00", align 1
@.str.1 = private unnamed_addr constant [3 x i8] c"%s\00", align 1

; Function Attrs: nounwind sspstrong uwtable
define dso_local i32 @main() local_unnamed_addr #0 {
  %1 = alloca [500 x i8], align 16
  %2 = alloca [100 x i8], align 16
  %3 = alloca [100 x i8], align 16
  %4 = alloca [100 x [100 x i8]], align 16
  %5 = getelementptr inbounds [500 x i8], [500 x i8]* %1, i64 0, i64 0
  call void @llvm.lifetime.start.p0i8(i64 500, i8* nonnull %5) #6
  %6 = getelementptr inbounds [100 x i8], [100 x i8]* %2, i64 0, i64 0
  call void @llvm.lifetime.start.p0i8(i64 100, i8* nonnull %6) #6
  %7 = getelementptr inbounds [100 x i8], [100 x i8]* %3, i64 0, i64 0
  call void @llvm.lifetime.start.p0i8(i64 100, i8* nonnull %7) #6
  %8 = getelementptr inbounds [100 x [100 x i8]], [100 x [100 x i8]]* %4, i64 0, i64 0, i64 0
  call void @llvm.lifetime.start.p0i8(i64 10000, i8* nonnull %8) #6
  %9 = call i32 (i8*, ...) bitcast (i32 (...)* @gets to i32 (i8*, ...)*)(i8* nonnull %5) #6
  %10 = call i32 (i8*, ...) bitcast (i32 (...)* @gets to i32 (i8*, ...)*)(i8* nonnull %6) #6
  %11 = call i32 (i8*, ...) bitcast (i32 (...)* @gets to i32 (i8*, ...)*)(i8* nonnull %7) #6
  %12 = call i64 @strlen(i8* noundef nonnull %5) #7
  %13 = icmp eq i64 %12, 0
  br i1 %13, label %70, label %14

14:                                               ; preds = %0, %43
  %15 = phi i64 [ %46, %43 ], [ 0, %0 ]
  %16 = phi i32 [ %45, %43 ], [ 0, %0 ]
  %17 = sext i32 %16 to i64
  %18 = getelementptr inbounds [500 x i8], [500 x i8]* %1, i64 0, i64 %17
  %19 = load i8, i8* %18, align 1, !tbaa !5
  %20 = icmp eq i8 %19, 32
  br i1 %20, label %43, label %26

21:                                               ; preds = %43
  %22 = trunc i64 %46 to i32
  %23 = icmp eq i32 %22, 0
  br i1 %23, label %70, label %24

24:                                               ; preds = %21
  %25 = and i64 %46, 4294967295
  br label %54

26:                                               ; preds = %14, %35
  %27 = phi i64 [ %36, %35 ], [ %17, %14 ]
  %28 = phi i8 [ %39, %35 ], [ %19, %14 ]
  %29 = phi i32 [ %37, %35 ], [ %16, %14 ]
  %30 = sub nsw i64 %27, %17
  %31 = getelementptr inbounds [100 x [100 x i8]], [100 x [100 x i8]]* %4, i64 0, i64 %15, i64 %30
  store i8 %28, i8* %31, align 1, !tbaa !5
  %32 = add nuw nsw i64 %30, 1
  %33 = getelementptr inbounds [100 x [100 x i8]], [100 x [100 x i8]]* %4, i64 0, i64 %15, i64 %32
  store i8 0, i8* %33, align 1, !tbaa !5
  %34 = icmp eq i8 %28, 0
  br i1 %34, label %41, label %35

35:                                               ; preds = %26
  %36 = add i64 %27, 1
  %37 = add nsw i32 %29, 1
  %38 = getelementptr inbounds [500 x i8], [500 x i8]* %1, i64 0, i64 %36
  %39 = load i8, i8* %38, align 1, !tbaa !5
  %40 = icmp eq i8 %39, 32
  br i1 %40, label %43, label %26, !llvm.loop !8

41:                                               ; preds = %26
  %42 = trunc i64 %27 to i32
  br label %43

43:                                               ; preds = %35, %41, %14
  %44 = phi i32 [ %16, %14 ], [ %42, %41 ], [ %37, %35 ]
  %45 = add nsw i32 %44, 1
  %46 = add nuw i64 %15, 1
  %47 = sext i32 %45 to i64
  %48 = icmp ugt i64 %12, %47
  br i1 %48, label %14, label %21, !llvm.loop !10

49:                                               ; preds = %61
  %50 = add i32 %22, -1
  %51 = icmp sgt i32 %22, 1
  br i1 %51, label %52, label %70

52:                                               ; preds = %49
  %53 = zext i32 %50 to i64
  br label %64

54:                                               ; preds = %24, %61
  %55 = phi i64 [ 0, %24 ], [ %62, %61 ]
  %56 = getelementptr inbounds [100 x [100 x i8]], [100 x [100 x i8]]* %4, i64 0, i64 %55, i64 0
  %57 = call i32 @strcmp(i8* noundef nonnull %6, i8* noundef nonnull %56) #7
  %58 = icmp eq i32 %57, 0
  br i1 %58, label %59, label %61

59:                                               ; preds = %54
  %60 = call i8* @strcpy(i8* noundef nonnull %56, i8* noundef nonnull %7) #6
  br label %61

61:                                               ; preds = %54, %59
  %62 = add nuw nsw i64 %55, 1
  %63 = icmp eq i64 %62, %25
  br i1 %63, label %49, label %54, !llvm.loop !11

64:                                               ; preds = %52, %64
  %65 = phi i64 [ 0, %52 ], [ %68, %64 ]
  %66 = getelementptr inbounds [100 x [100 x i8]], [100 x [100 x i8]]* %4, i64 0, i64 %65, i64 0
  %67 = call i32 (i8*, ...) @printf(i8* nonnull dereferenceable(1) getelementptr inbounds ([4 x i8], [4 x i8]* @.str, i64 0, i64 0), i8* nonnull %66)
  %68 = add nuw nsw i64 %65, 1
  %69 = icmp eq i64 %68, %53
  br i1 %69, label %70, label %64, !llvm.loop !12

70:                                               ; preds = %64, %0, %21, %49
  %71 = phi i32 [ %50, %49 ], [ -1, %21 ], [ -1, %0 ], [ %50, %64 ]
  %72 = sext i32 %71 to i64
  %73 = getelementptr inbounds [100 x [100 x i8]], [100 x [100 x i8]]* %4, i64 0, i64 %72, i64 0
  %74 = call i32 (i8*, ...) @printf(i8* nonnull dereferenceable(1) getelementptr inbounds ([3 x i8], [3 x i8]* @.str.1, i64 0, i64 0), i8* nonnull %73)
  call void @llvm.lifetime.end.p0i8(i64 10000, i8* nonnull %8) #6
  call void @llvm.lifetime.end.p0i8(i64 100, i8* nonnull %7) #6
  call void @llvm.lifetime.end.p0i8(i64 100, i8* nonnull %6) #6
  call void @llvm.lifetime.end.p0i8(i64 500, i8* nonnull %5) #6
  ret i32 0
}

; Function Attrs: argmemonly mustprogress nofree nosync nounwind willreturn
declare void @llvm.lifetime.start.p0i8(i64 immarg, i8* nocapture) #1

declare i32 @gets(...) local_unnamed_addr #2

; Function Attrs: argmemonly mustprogress nofree nounwind readonly willreturn
declare i64 @strlen(i8* nocapture) local_unnamed_addr #3

; Function Attrs: argmemonly mustprogress nofree nounwind readonly willreturn
declare i32 @strcmp(i8* nocapture, i8* nocapture) local_unnamed_addr #3

; Function Attrs: argmemonly mustprogress nofree nounwind willreturn
declare i8* @strcpy(i8* noalias returned writeonly, i8* noalias nocapture readonly) local_unnamed_addr #4

; Function Attrs: nofree nounwind
declare noundef i32 @printf(i8* nocapture noundef readonly, ...) local_unnamed_addr #5

; Function Attrs: argmemonly mustprogress nofree nosync nounwind willreturn
declare void @llvm.lifetime.end.p0i8(i64 immarg, i8* nocapture) #1


!llvm.module.flags = !{!0, !1, !2, !3}
!llvm.ident = !{!4}

!0 = !{i32 1, !"wchar_size", i32 4}
!1 = !{i32 7, !"PIC Level", i32 2}
!2 = !{i32 7, !"PIE Level", i32 2}
!3 = !{i32 7, !"uwtable", i32 1}
!4 = !{!"clang version 13.0.0"}
!5 = !{!6, !6, i64 0}
!6 = !{!"omnipotent char", !7, i64 0}
!7 = !{!"Simple C/C++ TBAA"}
!8 = distinct !{!8, !9}
!9 = !{!"llvm.loop.mustprogress"}
!10 = distinct !{!10, !9}
!11 = distinct !{!11, !9}
!12 = distinct !{!12, !9}
